; Function Attrs: mustprogress uwtable
define noundef zeroext i1 @_ZN4base8internal12ReadProcFileERKNS_8FilePathEPNSt7__cxx1112basic_stringIcSt11char_traitsIcESaIcEEE(ptr noundef nonnull align 8 dereferenceable(32) %0, ptr noundef initializes((8, 16)) %1) local_unnamed_addr #0 personality ptr @__gxx_personality_v0 {
  %3 = getelementptr inbounds nuw i8, ptr %1, i64 8
  store i64 0, ptr %3, align 8, !tbaa !11
  %4 = load ptr, ptr %1, align 8, !tbaa !3
  store i8 0, ptr %4, align 1, !tbaa !12
  %5 = tail call noundef zeroext i1 @_ZN4base16ReadFileToStringERKNS_8FilePathEPNSt7__cxx1112basic_stringIcSt11char_traitsIcESaIcEEE(ptr noundef nonnull align 8 dereferenceable(32) %0, ptr noundef nonnull %1)
  br i1 %5, label %6, label %9

6:                                                ; preds = %2
  %7 = load i64, ptr %3, align 8, !tbaa !11
  %8 = icmp ne i64 %7, 0
  br label %9

9:                                                ; preds = %2, %6
  %.0 = phi i1 [ %8, %6 ], [ false, %2 ]
  ret i1 %.0
}